target datalayout = "e-m:e-p270:32:32-p271:32:32-p272:64:64-i64:64-i128:128-f80:128-n8:16:32:64-S128"
target triple = "x86_64-pc-linux-gnu"

%struct.CVodeMemRec = type { double, ptr, ptr, i32, i32, i32, double, double, ptr, i32, ptr, ptr, i32, ptr, i32, i32, double, double, ptr, i32, i32, i32, ptr, ptr, ptr, i32, i32, ptr, ptr, ptr, i32, double, i32, i32, double, ptr, ptr, i32, ptr, ptr, i32, i32, i32, double, ptr, ptr, [13 x ptr], ptr, ptr, ptr, ptr, ptr, [13 x ptr], ptr, ptr, ptr, ptr, [13 x ptr], ptr, ptr, ptr, ptr, ptr, i32, [13 x ptr], ptr, ptr, ptr, ptr, ptr, i32, double, i32, i32, i32, i32, i32, double, double, double, double, double, double, double, double, [14 x double], [6 x double], [13 x double], double, double, double, double, double, double, double, double, double, double, double, i32, ptr, i32, i64, i32, i32, i32, i32, i32, double, double, double, i64, i64, i64, i64, i64, i64, i64, i64, i64, ptr, i64, i64, ptr, i64, i64, i64, i64, i64, i64, i32, i64, i64, i64, i64, i64, i64, double, double, double, ptr, ptr, ptr, ptr, ptr, i32, i32, i64, double, double, double, i32, double, i32, i32, i32, i32, i32, i32, i32, i32, i32, i32, i32, i32, i32, i32, i32, i32, ptr, ptr, ptr, i32, [6 x [4 x double]], i32, i64, ptr, i32, ptr, ptr, double, double, double, ptr, ptr, ptr, double, double, i32, i32, i64, ptr, i32, i32, ptr, i32 }

; Function Attrs: nounwind uwtable
define internal i32 @cvSensEwtSetSV(ptr noundef %0, ptr noundef %1, ptr noundef %2) #0 {
  %4 = alloca i32, align 4
  %5 = alloca ptr, align 8
  %6 = alloca ptr, align 8
  %7 = alloca ptr, align 8
  %8 = alloca i32, align 4
  %9 = alloca i32, align 4
  store ptr %0, ptr %5, align 8, !tbaa !7
  store ptr %1, ptr %6, align 8, !tbaa !104
  store ptr %2, ptr %7, align 8, !tbaa !104
  call void @llvm.lifetime.start.p0(i64 4, ptr %8) #8
  store i32 0, ptr %8, align 4, !tbaa !3
  br label %10

10:                                               ; preds = %56, %3
  %11 = load i32, ptr %8, align 4, !tbaa !3
  %12 = load ptr, ptr %5, align 8, !tbaa !7
  %13 = getelementptr inbounds nuw %struct.CVodeMemRec, ptr %12, i32 0, i32 20
  %14 = load i32, ptr %13, align 4, !tbaa !184
  %15 = icmp slt i32 %11, %14
  br i1 %15, label %16, label %59

16:                                               ; preds = %10
  %17 = load ptr, ptr %6, align 8, !tbaa !104
  %18 = load i32, ptr %8, align 4, !tbaa !3
  %19 = sext i32 %18 to i64
  %20 = getelementptr inbounds ptr, ptr %17, i64 %19
  %21 = load ptr, ptr %20, align 8, !tbaa !103
  %22 = load ptr, ptr %5, align 8, !tbaa !7
  %23 = getelementptr inbounds nuw %struct.CVodeMemRec, ptr %22, i32 0, i32 50
  %24 = load ptr, ptr %23, align 8, !tbaa !163
  call void @N_VAbs(ptr noundef %21, ptr noundef %24)
  %25 = load ptr, ptr %5, align 8, !tbaa !7
  %26 = getelementptr inbounds nuw %struct.CVodeMemRec, ptr %25, i32 0, i32 34
  %27 = load double, ptr %26, align 8, !tbaa !210
  %28 = load ptr, ptr %5, align 8, !tbaa !7
  %29 = getelementptr inbounds nuw %struct.CVodeMemRec, ptr %28, i32 0, i32 50
  %30 = load ptr, ptr %29, align 8, !tbaa !163
  %31 = load ptr, ptr %5, align 8, !tbaa !7
  %32 = getelementptr inbounds nuw %struct.CVodeMemRec, ptr %31, i32 0, i32 36
  %33 = load ptr, ptr %32, align 8, !tbaa !214
  %34 = load i32, ptr %8, align 4, !tbaa !3
  %35 = sext i32 %34 to i64
  %36 = getelementptr inbounds ptr, ptr %33, i64 %35
  %37 = load ptr, ptr %36, align 8, !tbaa !103
  %38 = load ptr, ptr %5, align 8, !tbaa !7
  %39 = getelementptr inbounds nuw %struct.CVodeMemRec, ptr %38, i32 0, i32 50
  %40 = load ptr, ptr %39, align 8, !tbaa !163
  call void @N_VLinearSum(double noundef %27, ptr noundef %30, double noundef 1.000000e+00, ptr noundef %37, ptr noundef %40)
  %41 = load ptr, ptr %5, align 8, !tbaa !7
  %42 = getelementptr inbounds nuw %struct.CVodeMemRec, ptr %41, i32 0, i32 50
  %43 = load ptr, ptr %42, align 8, !tbaa !163
  %44 = call double @N_VMin(ptr noundef %43)
  %45 = fcmp ole double %44, 0.000000e+00
  br i1 %45, label %46, label %47

46:                                               ; preds = %16
  store i32 -1, ptr %4, align 4
  store i32 1, ptr %9, align 4
  br label %60

47:                                               ; preds = %16
  %48 = load ptr, ptr %5, align 8, !tbaa !7
  %49 = getelementptr inbounds nuw %struct.CVodeMemRec, ptr %48, i32 0, i32 50
  %50 = load ptr, ptr %49, align 8, !tbaa !163
  %51 = load ptr, ptr %7, align 8, !tbaa !104
  %52 = load i32, ptr %8, align 4, !tbaa !3
  %53 = sext i32 %52 to i64
  %54 = getelementptr inbounds ptr, ptr %51, i64 %53
  %55 = load ptr, ptr %54, align 8, !tbaa !103
  call void @N_VInv(ptr noundef %50, ptr noundef %55)
  br label %56

56:                                               ; preds = %47
  %57 = load i32, ptr %8, align 4, !tbaa !3
  %58 = add nsw i32 %57, 1
  store i32 %58, ptr %8, align 4, !tbaa !3
  br label %10, !llvm.loop !298

59:                                               ; preds = %10
  store i32 0, ptr %4, align 4
  store i32 1, ptr %9, align 4
  br label %60

60:                                               ; preds = %59, %46
  call void @llvm.lifetime.end.p0(i64 4, ptr %8) #8
  %61 = load i32, ptr %4, align 4
  ret i32 %61
}

; Function Attrs: nounwind uwtable
define internal i32 @cvSensEwtSetSS(ptr noundef %0, ptr noundef %1, ptr noundef %2) #0 {
  %4 = alloca i32, align 4
  %5 = alloca ptr, align 8
  %6 = alloca ptr, align 8
  %7 = alloca ptr, align 8
  %8 = alloca i32, align 4
  %9 = alloca i32, align 4
  store ptr %0, ptr %5, align 8, !tbaa !7
  store ptr %1, ptr %6, align 8, !tbaa !104
  store ptr %2, ptr %7, align 8, !tbaa !104
  call void @llvm.lifetime.start.p0(i64 4, ptr %8) #8
  store i32 0, ptr %8, align 4, !tbaa !3
  br label %10

10:                                               ; preds = %62, %3
  %11 = load i32, ptr %8, align 4, !tbaa !3
  %12 = load ptr, ptr %5, align 8, !tbaa !7
  %13 = getelementptr inbounds nuw %struct.CVodeMemRec, ptr %12, i32 0, i32 20
  %14 = load i32, ptr %13, align 4, !tbaa !184
  %15 = icmp slt i32 %11, %14
  br i1 %15, label %16, label %65

16:                                               ; preds = %10
  %17 = load ptr, ptr %6, align 8, !tbaa !104
  %18 = load i32, ptr %8, align 4, !tbaa !3
  %19 = sext i32 %18 to i64
  %20 = getelementptr inbounds ptr, ptr %17, i64 %19
  %21 = load ptr, ptr %20, align 8, !tbaa !103
  %22 = load ptr, ptr %5, align 8, !tbaa !7
  %23 = getelementptr inbounds nuw %struct.CVodeMemRec, ptr %22, i32 0, i32 50
  %24 = load ptr, ptr %23, align 8, !tbaa !163
  call void @N_VAbs(ptr noundef %21, ptr noundef %24)
  %25 = load ptr, ptr %5, align 8, !tbaa !7
  %26 = getelementptr inbounds nuw %struct.CVodeMemRec, ptr %25, i32 0, i32 34
  %27 = load double, ptr %26, align 8, !tbaa !210
  %28 = load ptr, ptr %5, align 8, !tbaa !7
  %29 = getelementptr inbounds nuw %struct.CVodeMemRec, ptr %28, i32 0, i32 50
  %30 = load ptr, ptr %29, align 8, !tbaa !163
  %31 = load ptr, ptr %5, align 8, !tbaa !7
  %32 = getelementptr inbounds nuw %struct.CVodeMemRec, ptr %31, i32 0, i32 50
  %33 = load ptr, ptr %32, align 8, !tbaa !163
  call void @N_VScale(double noundef %27, ptr noundef %30, ptr noundef %33)
  %34 = load ptr, ptr %5, align 8, !tbaa !7
  %35 = getelementptr inbounds nuw %struct.CVodeMemRec, ptr %34, i32 0, i32 50
  %36 = load ptr, ptr %35, align 8, !tbaa !163
  %37 = load ptr, ptr %5, align 8, !tbaa !7
  %38 = getelementptr inbounds nuw %struct.CVodeMemRec, ptr %37, i32 0, i32 35
  %39 = load ptr, ptr %38, align 8, !tbaa !211
  %40 = load i32, ptr %8, align 4, !tbaa !3
  %41 = sext i32 %40 to i64
  %42 = getelementptr inbounds double, ptr %39, i64 %41
  %43 = load double, ptr %42, align 8, !tbaa !102
  %44 = load ptr, ptr %5, align 8, !tbaa !7
  %45 = getelementptr inbounds nuw %struct.CVodeMemRec, ptr %44, i32 0, i32 50
  %46 = load ptr, ptr %45, align 8, !tbaa !163
  call void @N_VAddConst(ptr noundef %36, double noundef %43, ptr noundef %46)
  %47 = load ptr, ptr %5, align 8, !tbaa !7
  %48 = getelementptr inbounds nuw %struct.CVodeMemRec, ptr %47, i32 0, i32 50
  %49 = load ptr, ptr %48, align 8, !tbaa !163
  %50 = call double @N_VMin(ptr noundef %49)
  %51 = fcmp ole double %50, 0.000000e+00
  br i1 %51, label %52, label %53

52:                                               ; preds = %16
  store i32 -1, ptr %4, align 4
  store i32 1, ptr %9, align 4
  br label %66

53:                                               ; preds = %16
  %54 = load ptr, ptr %5, align 8, !tbaa !7
  %55 = getelementptr inbounds nuw %struct.CVodeMemRec, ptr %54, i32 0, i32 50
  %56 = load ptr, ptr %55, align 8, !tbaa !163
  %57 = load ptr, ptr %7, align 8, !tbaa !104
  %58 = load i32, ptr %8, align 4, !tbaa !3
  %59 = sext i32 %58 to i64
  %60 = getelementptr inbounds ptr, ptr %57, i64 %59
  %61 = load ptr, ptr %60, align 8, !tbaa !103
  call void @N_VInv(ptr noundef %56, ptr noundef %61)
  br label %62

62:                                               ; preds = %53
  %63 = load i32, ptr %8, align 4, !tbaa !3
  %64 = add nsw i32 %63, 1
  store i32 %64, ptr %8, align 4, !tbaa !3
  br label %10, !llvm.loop !297

65:                                               ; preds = %10
  store i32 0, ptr %4, align 4
  store i32 1, ptr %9, align 4
  br label %66

66:                                               ; preds = %65, %52
  call void @llvm.lifetime.end.p0(i64 4, ptr %8) #8
  %67 = load i32, ptr %4, align 4
  ret i32 %67
}

; Function Attrs: nounwind uwtable
define internal i32 @cvSensEwtSetEE(ptr noundef %0, ptr noundef %1, ptr noundef %2) #0 {
  %4 = alloca i32, align 4
  %5 = alloca ptr, align 8
  %6 = alloca ptr, align 8
  %7 = alloca ptr, align 8
  %8 = alloca i32, align 4
  %9 = alloca ptr, align 8
  %10 = alloca i32, align 4
  %11 = alloca i32, align 4
  store ptr %0, ptr %5, align 8, !tbaa !7
  store ptr %1, ptr %6, align 8, !tbaa !104
  store ptr %2, ptr %7, align 8, !tbaa !104
  call void @llvm.lifetime.start.p0(i64 4, ptr %8) #8
  call void @llvm.lifetime.start.p0(i64 8, ptr %9) #8
  call void @llvm.lifetime.start.p0(i64 4, ptr %10) #8
  %12 = load ptr, ptr %5, align 8, !tbaa !7
  %13 = getelementptr inbounds nuw %struct.CVodeMemRec, ptr %12, i32 0, i32 61
  %14 = load ptr, ptr %13, align 8, !tbaa !197
  %15 = getelementptr inbounds ptr, ptr %14, i64 0
  %16 = load ptr, ptr %15, align 8, !tbaa !103
  store ptr %16, ptr %9, align 8, !tbaa !103
  store i32 0, ptr %8, align 4, !tbaa !3
  br label %17

17:                                               ; preds = %71, %3
  %18 = load i32, ptr %8, align 4, !tbaa !3
  %19 = load ptr, ptr %5, align 8, !tbaa !7
  %20 = getelementptr inbounds nuw %struct.CVodeMemRec, ptr %19, i32 0, i32 20
  %21 = load i32, ptr %20, align 4, !tbaa !184
  %22 = icmp slt i32 %18, %21
  br i1 %22, label %23, label %74

23:                                               ; preds = %17
  %24 = load ptr, ptr %5, align 8, !tbaa !7
  %25 = getelementptr inbounds nuw %struct.CVodeMemRec, ptr %24, i32 0, i32 28
  %26 = load ptr, ptr %25, align 8, !tbaa !67
  %27 = load i32, ptr %8, align 4, !tbaa !3
  %28 = sext i32 %27 to i64
  %29 = getelementptr inbounds double, ptr %26, i64 %28
  %30 = load double, ptr %29, align 8, !tbaa !102
  %31 = load ptr, ptr %6, align 8, !tbaa !104
  %32 = load i32, ptr %8, align 4, !tbaa !3
  %33 = sext i32 %32 to i64
  %34 = getelementptr inbounds ptr, ptr %31, i64 %33
  %35 = load ptr, ptr %34, align 8, !tbaa !103
  %36 = load ptr, ptr %9, align 8, !tbaa !103
  call void @N_VScale(double noundef %30, ptr noundef %35, ptr noundef %36)
  %37 = load ptr, ptr %5, align 8, !tbaa !7
  %38 = getelementptr inbounds nuw %struct.CVodeMemRec, ptr %37, i32 0, i32 10
  %39 = load ptr, ptr %38, align 8, !tbaa !27
  %40 = load ptr, ptr %9, align 8, !tbaa !103
  %41 = load ptr, ptr %7, align 8, !tbaa !104
  %42 = load i32, ptr %8, align 4, !tbaa !3
  %43 = sext i32 %42 to i64
  %44 = getelementptr inbounds ptr, ptr %41, i64 %43
  %45 = load ptr, ptr %44, align 8, !tbaa !103
  %46 = load ptr, ptr %5, align 8, !tbaa !7
  %47 = getelementptr inbounds nuw %struct.CVodeMemRec, ptr %46, i32 0, i32 11
  %48 = load ptr, ptr %47, align 8, !tbaa !28
  %49 = call i32 %39(ptr noundef %40, ptr noundef %45, ptr noundef %48)
  store i32 %49, ptr %10, align 4, !tbaa !3
  %50 = load i32, ptr %10, align 4, !tbaa !3
  %51 = icmp ne i32 %50, 0
  br i1 %51, label %52, label %53

52:                                               ; preds = %23
  store i32 -1, ptr %4, align 4
  store i32 1, ptr %11, align 4
  br label %75

53:                                               ; preds = %23
  %54 = load ptr, ptr %5, align 8, !tbaa !7
  %55 = getelementptr inbounds nuw %struct.CVodeMemRec, ptr %54, i32 0, i32 28
  %56 = load ptr, ptr %55, align 8, !tbaa !67
  %57 = load i32, ptr %8, align 4, !tbaa !3
  %58 = sext i32 %57 to i64
  %59 = getelementptr inbounds double, ptr %56, i64 %58
  %60 = load double, ptr %59, align 8, !tbaa !102
  %61 = load ptr, ptr %7, align 8, !tbaa !104
  %62 = load i32, ptr %8, align 4, !tbaa !3
  %63 = sext i32 %62 to i64
  %64 = getelementptr inbounds ptr, ptr %61, i64 %63
  %65 = load ptr, ptr %64, align 8, !tbaa !103
  %66 = load ptr, ptr %7, align 8, !tbaa !104
  %67 = load i32, ptr %8, align 4, !tbaa !3
  %68 = sext i32 %67 to i64
  %69 = getelementptr inbounds ptr, ptr %66, i64 %68
  %70 = load ptr, ptr %69, align 8, !tbaa !103
  call void @N_VScale(double noundef %60, ptr noundef %65, ptr noundef %70)
  br label %71

71:                                               ; preds = %53
  %72 = load i32, ptr %8, align 4, !tbaa !3
  %73 = add nsw i32 %72, 1
  store i32 %73, ptr %8, align 4, !tbaa !3
  br label %17, !llvm.loop !296

74:                                               ; preds = %17
  store i32 0, ptr %4, align 4
  store i32 1, ptr %11, align 4
  br label %75

75:                                               ; preds = %74, %52
  call void @llvm.lifetime.end.p0(i64 4, ptr %10) #8
  call void @llvm.lifetime.end.p0(i64 8, ptr %9) #8
  call void @llvm.lifetime.end.p0(i64 4, ptr %8) #8
  %76 = load i32, ptr %4, align 4
  ret i32 %76
}

; Function Attrs: nounwind uwtable
define internal i32 @cvSensEwtSet(ptr noundef %0, ptr noundef %1, ptr noundef %2) #0 {
  %4 = alloca ptr, align 8
  %5 = alloca ptr, align 8
  %6 = alloca ptr, align 8
  %7 = alloca i32, align 4
  store ptr %0, ptr %4, align 8, !tbaa !7
  store ptr %1, ptr %5, align 8, !tbaa !104
  store ptr %2, ptr %6, align 8, !tbaa !104
  call void @llvm.lifetime.start.p0(i64 4, ptr %7) #8
  store i32 0, ptr %7, align 4, !tbaa !3
  %8 = load ptr, ptr %4, align 8, !tbaa !7
  %9 = getelementptr inbounds nuw %struct.CVodeMemRec, ptr %8, i32 0, i32 33
  %10 = load i32, ptr %9, align 4, !tbaa !74
  switch i32 %10, label %26 [
    i32 4, label %11
    i32 1, label %16
    i32 2, label %21
  ]

11:                                               ; preds = %3
  %12 = load ptr, ptr %4, align 8, !tbaa !7
  %13 = load ptr, ptr %5, align 8, !tbaa !104
  %14 = load ptr, ptr %6, align 8, !tbaa !104
  %15 = call i32 @cvSensEwtSetEE(ptr noundef %12, ptr noundef %13, ptr noundef %14)
  store i32 %15, ptr %7, align 4, !tbaa !3
  br label %26

16:                                               ; preds = %3
  %17 = load ptr, ptr %4, align 8, !tbaa !7
  %18 = load ptr, ptr %5, align 8, !tbaa !104
  %19 = load ptr, ptr %6, align 8, !tbaa !104
  %20 = call i32 @cvSensEwtSetSS(ptr noundef %17, ptr noundef %18, ptr noundef %19)
  store i32 %20, ptr %7, align 4, !tbaa !3
  br label %26

21:                                               ; preds = %3
  %22 = load ptr, ptr %4, align 8, !tbaa !7
  %23 = load ptr, ptr %5, align 8, !tbaa !104
  %24 = load ptr, ptr %6, align 8, !tbaa !104
  %25 = call i32 @cvSensEwtSetSV(ptr noundef %22, ptr noundef %23, ptr noundef %24)
  store i32 %25, ptr %7, align 4, !tbaa !3
  br label %26

26:                                               ; preds = %3, %21, %16, %11
  %27 = load i32, ptr %7, align 4, !tbaa !3
  call void @llvm.lifetime.end.p0(i64 4, ptr %7) #8
  ret i32 %27
}