; Function Attrs: nounwind uwtable
define internal fastcc range(i32 -1, 1) i32 @cvSensEwtSet(ptr noundef nonnull readonly captures(none) %0, ptr noundef readonly captures(none) %1, ptr noundef readonly captures(none) %2) unnamed_addr #0 {
  %4 = getelementptr inbounds nuw i8, ptr %0, i64 228
  %5 = load i32, ptr %4, align 4, !tbaa !163
  switch i32 %5, label %cvSensEwtSetEE.exit [
    i32 4, label %6
    i32 1, label %35
    i32 2, label %62
  ]

6:                                                ; preds = %3
  %7 = getelementptr inbounds nuw i8, ptr %0, i64 728
  %8 = load ptr, ptr %7, align 8, !tbaa !148
  %9 = load ptr, ptr %8, align 8, !tbaa !46
  %10 = getelementptr inbounds nuw i8, ptr %0, i64 192
  %11 = getelementptr inbounds nuw i8, ptr %0, i64 140
  %12 = load i32, ptr %11, align 4, !tbaa !133
  %13 = icmp sgt i32 %12, 0
  br i1 %13, label %.lr.ph.i, label %cvSensEwtSetEE.exit

.lr.ph.i:                                         ; preds = %6
  %14 = getelementptr inbounds nuw i8, ptr %0, i64 72
  %15 = getelementptr inbounds nuw i8, ptr %0, i64 80
  br label %16

16:                                               ; preds = %27, %.lr.ph.i
  %indvars.iv.i = phi i64 [ 0, %.lr.ph.i ], [ %indvars.iv.next.i, %27 ]
  %17 = load ptr, ptr %10, align 8, !tbaa !48
  %18 = getelementptr inbounds nuw double, ptr %17, i64 %indvars.iv.i
  %19 = load double, ptr %18, align 8, !tbaa !49
  %20 = getelementptr inbounds nuw ptr, ptr %1, i64 %indvars.iv.i
  %21 = load ptr, ptr %20, align 8, !tbaa !46
  tail call void @N_VScale(double noundef %19, ptr noundef %21, ptr noundef %9) #13
  %22 = load ptr, ptr %14, align 8, !tbaa !110
  %23 = getelementptr inbounds nuw ptr, ptr %2, i64 %indvars.iv.i
  %24 = load ptr, ptr %23, align 8, !tbaa !46
  %25 = load ptr, ptr %15, align 8, !tbaa !111
  %26 = tail call i32 %22(ptr noundef %9, ptr noundef %24, ptr noundef %25) #13
  %.not.i = icmp eq i32 %26, 0
  br i1 %.not.i, label %27, label %cvSensEwtSetEE.exit

27:                                               ; preds = %16
  %28 = load ptr, ptr %10, align 8, !tbaa !48
  %29 = getelementptr inbounds nuw double, ptr %28, i64 %indvars.iv.i
  %30 = load double, ptr %29, align 8, !tbaa !49
  %31 = load ptr, ptr %23, align 8, !tbaa !46
  tail call void @N_VScale(double noundef %30, ptr noundef %31, ptr noundef %31) #13
  %indvars.iv.next.i = add nuw nsw i64 %indvars.iv.i, 1
  %32 = load i32, ptr %11, align 4, !tbaa !133
  %33 = sext i32 %32 to i64
  %34 = icmp slt i64 %indvars.iv.next.i, %33
  br i1 %34, label %16, label %cvSensEwtSetEE.exit, !llvm.loop !267

35:                                               ; preds = %3
  %36 = getelementptr inbounds nuw i8, ptr %0, i64 140
  %37 = load i32, ptr %36, align 4, !tbaa !133
  %38 = icmp sgt i32 %37, 0
  br i1 %38, label %.lr.ph.i10, label %cvSensEwtSetEE.exit

.lr.ph.i10:                                       ; preds = %35
  %39 = getelementptr inbounds nuw i8, ptr %0, i64 448
  %40 = getelementptr inbounds nuw i8, ptr %0, i64 232
  %41 = getelementptr inbounds nuw i8, ptr %0, i64 240
  br label %42

42:                                               ; preds = %55, %.lr.ph.i10
  %indvars.iv.i11 = phi i64 [ 0, %.lr.ph.i10 ], [ %indvars.iv.next.i12, %55 ]
  %43 = getelementptr inbounds nuw ptr, ptr %1, i64 %indvars.iv.i11
  %44 = load ptr, ptr %43, align 8, !tbaa !46
  %45 = load ptr, ptr %39, align 8, !tbaa !80
  tail call void @N_VAbs(ptr noundef %44, ptr noundef %45) #13
  %46 = load double, ptr %40, align 8, !tbaa !164
  %47 = load ptr, ptr %39, align 8, !tbaa !80
  tail call void @N_VScale(double noundef %46, ptr noundef %47, ptr noundef %47) #13
  %48 = load ptr, ptr %39, align 8, !tbaa !80
  %49 = load ptr, ptr %41, align 8, !tbaa !166
  %50 = getelementptr inbounds nuw double, ptr %49, i64 %indvars.iv.i11
  %51 = load double, ptr %50, align 8, !tbaa !49
  tail call void @N_VAddConst(ptr noundef %48, double noundef %51, ptr noundef %48) #13
  %52 = load ptr, ptr %39, align 8, !tbaa !80
  %53 = tail call double @N_VMin(ptr noundef %52) #13
  %54 = fcmp ugt double %53, 0.000000e+00
  br i1 %54, label %55, label %cvSensEwtSetEE.exit

55:                                               ; preds = %42
  %56 = load ptr, ptr %39, align 8, !tbaa !80
  %57 = getelementptr inbounds nuw ptr, ptr %2, i64 %indvars.iv.i11
  %58 = load ptr, ptr %57, align 8, !tbaa !46
  tail call void @N_VInv(ptr noundef %56, ptr noundef %58) #13
  %indvars.iv.next.i12 = add nuw nsw i64 %indvars.iv.i11, 1
  %59 = load i32, ptr %36, align 4, !tbaa !133
  %60 = sext i32 %59 to i64
  %61 = icmp slt i64 %indvars.iv.next.i12, %60
  br i1 %61, label %42, label %cvSensEwtSetEE.exit, !llvm.loop !268

62:                                               ; preds = %3
  %63 = getelementptr inbounds nuw i8, ptr %0, i64 140
  %64 = load i32, ptr %63, align 4, !tbaa !133
  %65 = icmp sgt i32 %64, 0
  br i1 %65, label %.lr.ph.i13, label %cvSensEwtSetEE.exit

.lr.ph.i13:                                       ; preds = %62
  %66 = getelementptr inbounds nuw i8, ptr %0, i64 448
  %67 = getelementptr inbounds nuw i8, ptr %0, i64 232
  %68 = getelementptr inbounds nuw i8, ptr %0, i64 248
  br label %69

69:                                               ; preds = %81, %.lr.ph.i13
  %indvars.iv.i14 = phi i64 [ 0, %.lr.ph.i13 ], [ %indvars.iv.next.i15, %81 ]
  %70 = getelementptr inbounds nuw ptr, ptr %1, i64 %indvars.iv.i14
  %71 = load ptr, ptr %70, align 8, !tbaa !46
  %72 = load ptr, ptr %66, align 8, !tbaa !80
  tail call void @N_VAbs(ptr noundef %71, ptr noundef %72) #13
  %73 = load double, ptr %67, align 8, !tbaa !164
  %74 = load ptr, ptr %66, align 8, !tbaa !80
  %75 = load ptr, ptr %68, align 8, !tbaa !170
  %76 = getelementptr inbounds nuw ptr, ptr %75, i64 %indvars.iv.i14
  %77 = load ptr, ptr %76, align 8, !tbaa !46
  tail call void @N_VLinearSum(double noundef %73, ptr noundef %74, double noundef 1.000000e+00, ptr noundef %77, ptr noundef %74) #13
  %78 = load ptr, ptr %66, align 8, !tbaa !80
  %79 = tail call double @N_VMin(ptr noundef %78) #13
  %80 = fcmp ugt double %79, 0.000000e+00
  br i1 %80, label %81, label %cvSensEwtSetEE.exit

81:                                               ; preds = %69
  %82 = load ptr, ptr %66, align 8, !tbaa !80
  %83 = getelementptr inbounds nuw ptr, ptr %2, i64 %indvars.iv.i14
  %84 = load ptr, ptr %83, align 8, !tbaa !46
  tail call void @N_VInv(ptr noundef %82, ptr noundef %84) #13
  %indvars.iv.next.i15 = add nuw nsw i64 %indvars.iv.i14, 1
  %85 = load i32, ptr %63, align 4, !tbaa !133
  %86 = sext i32 %85 to i64
  %87 = icmp slt i64 %indvars.iv.next.i15, %86
  br i1 %87, label %69, label %cvSensEwtSetEE.exit, !llvm.loop !269

cvSensEwtSetEE.exit:                              ; preds = %81, %69, %55, %42, %27, %16, %62, %35, %6, %3
  %.0 = phi i32 [ 0, %3 ], [ 0, %6 ], [ 0, %35 ], [ 0, %62 ], [ -1, %16 ], [ 0, %27 ], [ -1, %42 ], [ 0, %55 ], [ -1, %69 ], [ 0, %81 ]
  ret i32 %.0
}